; Function Attrs: nounwind uwtable
define range(i32 0, 2) i32 @ossl_quic_rcidm_add_from_initial(ptr noundef captures(none) %0, ptr noundef readonly captures(none) %1) local_unnamed_addr #0 {
  %3 = getelementptr inbounds nuw i8, ptr %0, i64 136
  %4 = load i8, ptr %3, align 8
  %5 = and i8 %4, 36
  %or.cond = icmp eq i8 %5, 0
  br i1 %or.cond, label %6, label %35

6:                                                ; preds = %2
  %7 = tail call fastcc ptr @rcidm_create_rcid(ptr noundef nonnull %0, i64 noundef 0, ptr noundef %1, i32 noundef 0)
  %8 = icmp eq ptr %7, null
  br i1 %8, label %35, label %9

9:                                                ; preds = %6
  %10 = load i8, ptr %3, align 8
  %11 = or i8 %10, 32
  store i8 %11, ptr %3, align 8
  %12 = and i8 %10, 4
  %.not.i.i = icmp eq i8 %12, 0
  br i1 %.not.i.i, label %rcidm_tick.exit, label %13

13:                                               ; preds = %9
  %14 = getelementptr inbounds nuw i8, ptr %0, i64 72
  %15 = load i64, ptr %14, align 8, !tbaa !26
  %16 = icmp eq i64 %15, 0
  br i1 %16, label %rcidm_should_roll.exit.thread.i, label %17

17:                                               ; preds = %13
  %18 = getelementptr inbounds nuw i8, ptr %0, i64 64
  %19 = load i64, ptr %18, align 8, !tbaa !27
  %20 = icmp ult i64 %19, 10000
  %21 = and i8 %10, 64
  %.not.i = icmp eq i8 %21, 0
  %or.cond.i = and i1 %.not.i, %20
  br i1 %or.cond.i, label %rcidm_tick.exit, label %rcidm_should_roll.exit.thread.i

rcidm_should_roll.exit.thread.i:                  ; preds = %17, %13
  %22 = getelementptr inbounds nuw i8, ptr %0, i64 88
  %23 = load ptr, ptr %22, align 8, !tbaa !3
  %24 = tail call ptr @ossl_pqueue_peek(ptr noundef %23) #9
  %25 = icmp eq ptr %24, null
  br i1 %25, label %rcidm_tick.exit, label %26

26:                                               ; preds = %rcidm_should_roll.exit.thread.i
  tail call fastcc void @rcidm_transition_rcid(ptr noundef nonnull %0, ptr noundef %24, i32 noundef 1)
  %27 = load i64, ptr %14, align 8, !tbaa !26
  %28 = add i64 %27, 1
  store i64 %28, ptr %14, align 8, !tbaa !26
  %29 = load i8, ptr %3, align 8
  %30 = and i8 %29, -65
  store i8 %30, ptr %3, align 8
  %31 = getelementptr inbounds nuw i8, ptr %0, i64 64
  %32 = load i64, ptr %31, align 8, !tbaa !27
  %33 = icmp ugt i64 %32, 9999
  %34 = urem i64 %32, 10000
  %storemerge.i.i = select i1 %33, i64 %34, i64 0
  store i64 %storemerge.i.i, ptr %31, align 8, !tbaa !27
  br label %rcidm_tick.exit

rcidm_tick.exit:                                  ; preds = %9, %17, %rcidm_should_roll.exit.thread.i, %26
  tail call fastcc void @rcidm_update(ptr noundef nonnull %0)
  br label %35

35:                                               ; preds = %6, %2, %rcidm_tick.exit
  %.0 = phi i32 [ 1, %rcidm_tick.exit ], [ 0, %2 ], [ 0, %6 ]
  ret i32 %.0
}